; Function Attrs: mustprogress uwtable
define noundef ptr @_ZN3gmx29PositionCalculationCollection25createCalculationFromEnumEPKci(ptr noundef nonnull readonly align 8 captures(none) dereferenceable(8) %0, ptr noundef readonly captures(none) %1, i32 noundef %2) local_unnamed_addr #0 align 2 {
  %4 = alloca i32, align 4
  %5 = alloca i32, align 4
  call void @llvm.lifetime.start.p0(i64 4, ptr nonnull %4) #26
  call void @llvm.lifetime.start.p0(i64 4, ptr nonnull %5) #26
  store i32 %2, ptr %5, align 4, !tbaa !9
  call void @_ZN3gmx29PositionCalculationCollection12typeFromEnumEPKcP11e_poscalc_tPi(ptr noundef %1, ptr noundef nonnull %4, ptr noundef nonnull %5)
  %6 = load ptr, ptr %0, align 8, !tbaa !84
  %7 = load i32, ptr %4, align 4, !tbaa !7
  %8 = load i32, ptr %5, align 4, !tbaa !9
  %9 = tail call noundef ptr @_Z11save_callocPKcS0_imm(ptr noundef nonnull @.str.23, ptr noundef nonnull @.str.18, i32 noundef 440, i64 noundef 1, i64 noundef 144)
  store i32 %7, ptr %9, align 8, !tbaa !82
  %10 = icmp ult i32 %7, 5
  br i1 %10, label %switch.lookup, label %12

switch.lookup:                                    ; preds = %3
  %11 = zext nneg i32 %7 to i64
  %switch.gep = getelementptr inbounds nuw [5 x i32], ptr @switch.table._ZL18create_simple_baseP17gmx_ana_poscalc_t, i64 0, i64 %11
  %switch.load = load i32, ptr %switch.gep, align 4
  br label %12

12:                                               ; preds = %3, %switch.lookup
  %.0.i.i = phi i32 [ %switch.load, %switch.lookup ], [ 0, %3 ]
  %13 = getelementptr inbounds nuw i8, ptr %9, i64 8
  store i32 %.0.i.i, ptr %13, align 8, !tbaa !83
  %14 = icmp eq i32 %7, 0
  %15 = and i32 %8, -2
  %spec.select.i.i = select i1 %14, i32 %15, i32 %8
  %16 = and i32 %spec.select.i.i, 32
  %.not.i.i = icmp eq i32 %16, 0
  %17 = and i32 %spec.select.i.i, -17
  %.1.i.i = select i1 %.not.i.i, i32 %spec.select.i.i, i32 %17
  %.off.i.i = add i32 %7, -1
  %switch.i.i = icmp ult i32 %.off.i.i, 2
  %18 = and i32 %.1.i.i, -7
  %spec.select11.i.i = select i1 %switch.i.i, i32 %.1.i.i, i32 %18
  %19 = getelementptr inbounds nuw i8, ptr %9, i64 4
  %20 = load i32, ptr %19, align 4, !tbaa !78
  %21 = or i32 %20, %spec.select11.i.i
  store i32 %21, ptr %19, align 4, !tbaa !78
  %22 = getelementptr inbounds nuw i8, ptr %9, i64 128
  store i32 1, ptr %22, align 8, !tbaa !58
  %23 = getelementptr inbounds nuw i8, ptr %9, i64 136
  store ptr %6, ptr %23, align 8, !tbaa !70
  %24 = getelementptr inbounds nuw i8, ptr %9, i64 112
  store ptr null, ptr %24, align 8, !tbaa !72
  %25 = getelementptr inbounds nuw i8, ptr %6, i64 16
  %26 = load ptr, ptr %25, align 8, !tbaa !48
  %27 = getelementptr inbounds nuw i8, ptr %9, i64 120
  store ptr %26, ptr %27, align 8, !tbaa !71
  %.not20.i.i = icmp eq ptr %26, null
  br i1 %.not20.i.i, label %30, label %28

28:                                               ; preds = %12
  %29 = getelementptr inbounds nuw i8, ptr %26, i64 112
  store ptr %9, ptr %29, align 8, !tbaa !72
  br label %_ZN3gmx29PositionCalculationCollection4Impl17createCalculationE11e_poscalc_ti.exit

30:                                               ; preds = %12
  %31 = getelementptr inbounds nuw i8, ptr %6, i64 8
  store ptr %9, ptr %31, align 8, !tbaa !73
  br label %_ZN3gmx29PositionCalculationCollection4Impl17createCalculationE11e_poscalc_ti.exit

_ZN3gmx29PositionCalculationCollection4Impl17createCalculationE11e_poscalc_ti.exit: ; preds = %28, %30
  store ptr %9, ptr %25, align 8, !tbaa !48
  call void @llvm.lifetime.end.p0(i64 4, ptr nonnull %5) #26
  call void @llvm.lifetime.end.p0(i64 4, ptr nonnull %4) #26
  ret ptr %9
}